(dp0
S'./res__31.txt'
p1
F0.551440329218
sS'./res__2.txt'
p2
F0.572016460905
sS'./res__20.txt'
p3
F0.559670781893
sS'./res__81.txt'
p4
F0.58024691358
sS'./res__79.txt'
p5
F0.567901234568
sS'./res__18.txt'
p6
F0.576131687243
sS'./res__58.txt'
p7
F0.567901234568
sS'./res__69.txt'
p8
F0.588477366255
sS'./res__86.txt'
p9
F0.567901234568
sS'./res__4.txt'
p10
F0.588477366255
sS'./res__80.txt'
p11
F0.572016460905
sS'./res__41.txt'
p12
F0.551440329218
sS'./res__94.txt'
p13
F0.559670781893
sS'./res__45.txt'
p14
F0.567901234568
sS'./res__88.txt'
p15
F0.539094650206
sS'./res__96.txt'
p16
F0.559670781893
sS'./res__97.txt'
p17
F0.547325102881
sS'./res__75.txt'
p18
F0.567901234568
sS'./res__51.txt'
p19
F0.59670781893
sS'./res__44.txt'
p20
F0.526748971193
sS'./res__27.txt'
p21
F0.551440329218
sS'./res__82.txt'
p22
F0.559670781893
sS'./res__67.txt'
p23
F0.576131687243
sS'./res__62.txt'
p24
F0.559670781893
sS'./res__34.txt'
p25
F0.572016460905
sS'./res__59.txt'
p26
F0.559670781893
sS'./res__90.txt'
p27
F0.58024691358
sS'./res__71.txt'
p28
F0.559670781893
sS'./res__11.txt'
p29
F0.539094650206
sS'./res__53.txt'
p30
F0.588477366255
sS'./res__12.txt'
p31
F0.559670781893
sS'./res__33.txt'
p32
F0.588477366255
sS'./res__35.txt'
p33
F0.576131687243
sS'./res__46.txt'
p34
F0.567901234568
sS'./res__25.txt'
p35
F0.59670781893
sS'./res__7.txt'
p36
F0.559670781893
sS'./res__60.txt'
p37
F0.559670781893
sS'./res__54.txt'
p38
F0.592592592593
sS'./res__98.txt'
p39
F0.559670781893
sS'./res__49.txt'
p40
F0.588477366255
sS'./res__26.txt'
p41
F0.530864197531
sS'./res__78.txt'
p42
F0.59670781893
sS'./res__9.txt'
p43
F0.567901234568
sS'./res__36.txt'
p44
F0.551440329218
sS'./res__73.txt'
p45
F0.559670781893
sS'./res__37.txt'
p46
F0.539094650206
sS'./res__77.txt'
p47
F0.58024691358
sS'./res__92.txt'
p48
F0.559670781893
sS'./res__21.txt'
p49
F0.58024691358
sS'./res__89.txt'
p50
F0.526748971193
sS'./res__16.txt'
p51
F0.539094650206
sS'./res__99.txt'
p52
F0.551440329218
sS'./res__38.txt'
p53
F0.539094650206
sS'./res__6.txt'
p54
F0.526748971193
sS'./res__95.txt'
p55
F0.58024691358
sS'./res__74.txt'
p56
F0.572016460905
sS'./res__56.txt'
p57
F0.551440329218
sS'./res__1.txt'
p58
F0.526748971193
sS'./res__14.txt'
p59
F0.526748971193
sS'./res__84.txt'
p60
F0.588477366255
sS'./res__42.txt'
p61
F0.59670781893
sS'./res__72.txt'
p62
F0.567901234568
sS'./res__57.txt'
p63
F0.539094650206
sS'./res__30.txt'
p64
F0.588477366255
sS'./res__91.txt'
p65
F0.588477366255
sS'./res__50.txt'
p66
F0.539094650206
sS'./res__17.txt'
p67
F0.59670781893
sS'./res__23.txt'
p68
F0.539094650206
sS'./res__83.txt'
p69
F0.59670781893
sS'./res__28.txt'
p70
F0.555555555556
sS'./res__40.txt'
p71
F0.588477366255
sS'./res__39.txt'
p72
F0.588477366255
sS'./res__24.txt'
p73
F0.588477366255
sS'./res__10.txt'
p74
F0.518518518519
sS'./res__22.txt'
p75
F0.543209876543
sS'./res__55.txt'
p76
F0.59670781893
sS'./res__32.txt'
p77
F0.559670781893
sS'./res__15.txt'
p78
F0.59670781893
sS'./res__66.txt'
p79
F0.559670781893
sS'./res__8.txt'
p80
F0.58024691358
s.